target datalayout = "e-m:e-p270:32:32-p271:32:32-p272:64:64-i64:64-i128:128-f80:128-n8:16:32:64-S128"
target triple = "x86_64-pc-linux-gnu"

@use_default_ctx = internal global i32 0, align 4

; Function Attrs: nounwind uwtable
define internal void @unload_providers(ptr noundef %0, ptr noundef %1) #0 {
  %3 = alloca ptr, align 8
  %4 = alloca ptr, align 8
  store ptr %0, ptr %3, align 8, !tbaa !19
  store ptr %1, ptr %4, align 8, !tbaa !21
  %5 = load ptr, ptr %4, align 8, !tbaa !21
  %6 = getelementptr inbounds ptr, ptr %5, i64 0
  %7 = load ptr, ptr %6, align 8, !tbaa !25
  %8 = icmp ne ptr %7, null
  br i1 %8, label %9, label %14

9:                                                ; preds = %2
  %10 = load ptr, ptr %4, align 8, !tbaa !21
  %11 = getelementptr inbounds ptr, ptr %10, i64 0
  %12 = load ptr, ptr %11, align 8, !tbaa !25
  %13 = call i32 @OSSL_PROVIDER_unload(ptr noundef %12)
  br label %14

14:                                               ; preds = %9, %2
  %15 = load ptr, ptr %4, align 8, !tbaa !21
  %16 = getelementptr inbounds ptr, ptr %15, i64 1
  %17 = load ptr, ptr %16, align 8, !tbaa !25
  %18 = icmp ne ptr %17, null
  br i1 %18, label %19, label %24

19:                                               ; preds = %14
  %20 = load ptr, ptr %4, align 8, !tbaa !21
  %21 = getelementptr inbounds ptr, ptr %20, i64 1
  %22 = load ptr, ptr %21, align 8, !tbaa !25
  %23 = call i32 @OSSL_PROVIDER_unload(ptr noundef %22)
  br label %24

24:                                               ; preds = %19, %14
  %25 = load ptr, ptr %3, align 8, !tbaa !19
  %26 = icmp ne ptr %25, null
  br i1 %26, label %27, label %36

27:                                               ; preds = %24
  %28 = load ptr, ptr %3, align 8, !tbaa !19
  %29 = load ptr, ptr %28, align 8, !tbaa !13
  %30 = icmp ne ptr %29, null
  br i1 %30, label %31, label %36

31:                                               ; preds = %27
  %32 = load ptr, ptr %3, align 8, !tbaa !19
  %33 = load ptr, ptr %32, align 8, !tbaa !13
  call void @OPENSSL_thread_stop_ex(ptr noundef %33)
  %34 = load ptr, ptr %3, align 8, !tbaa !19
  %35 = load ptr, ptr %34, align 8, !tbaa !13
  call void @OSSL_LIB_CTX_free(ptr noundef %35)
  br label %36

36:                                               ; preds = %31, %27, %24
  ret void
}

; Function Attrs: nounwind uwtable
define internal i32 @test_implicit_EVP_CIPHER_fetch() #0 {
  %1 = alloca ptr, align 8
  %2 = alloca [2 x ptr], align 16
  %3 = alloca i32, align 4
  call void @llvm.lifetime.start.p0(i64 8, ptr %1) #6
  store ptr null, ptr %1, align 8, !tbaa !13
  call void @llvm.lifetime.start.p0(i64 16, ptr %2) #6
  call void @llvm.memset.p0.i64(ptr align 16 %2, i8 0, i64 16, i1 false)
  call void @llvm.lifetime.start.p0(i64 4, ptr %3) #6
  store i32 0, ptr %3, align 4, !tbaa !4
  %4 = load i32, ptr @use_default_ctx, align 4, !tbaa !4
  %5 = icmp eq i32 %4, 0
  br i1 %5, label %10, label %6

6:                                                ; preds = %0
  %7 = getelementptr inbounds [2 x ptr], ptr %2, i64 0, i64 0
  %8 = call i32 @load_providers(ptr noundef %1, ptr noundef %7)
  %9 = icmp ne i32 %8, 0
  br i1 %9, label %10, label %14

10:                                               ; preds = %6, %0
  %11 = call ptr @EVP_aes_128_cbc()
  %12 = call i32 @test_cipher(ptr noundef %11)
  %13 = icmp ne i32 %12, 0
  br label %14

14:                                               ; preds = %10, %6
  %15 = phi i1 [ false, %6 ], [ %13, %10 ]
  %16 = zext i1 %15 to i32
  store i32 %16, ptr %3, align 4, !tbaa !4
  %17 = getelementptr inbounds [2 x ptr], ptr %2, i64 0, i64 0
  call void @unload_providers(ptr noundef %1, ptr noundef %17)
  %18 = load i32, ptr %3, align 4, !tbaa !4
  call void @llvm.lifetime.end.p0(i64 4, ptr %3) #6
  call void @llvm.lifetime.end.p0(i64 16, ptr %2) #6
  call void @llvm.lifetime.end.p0(i64 8, ptr %1) #6
  ret i32 %18
}