; Function Attrs: nounwind uwtable
define internal range(i32 0, 2) i32 @test_implicit_EVP_CIPHER_fetch() #1 {
  %1 = alloca ptr, align 8
  %2 = alloca [2 x ptr], align 16
  call void @llvm.lifetime.start.p0(i64 8, ptr nonnull %1) #7
  store ptr null, ptr %1, align 8, !tbaa !11
  call void @llvm.lifetime.start.p0(i64 16, ptr nonnull %2) #7
  call void @llvm.memset.p0.i64(ptr noundef nonnull align 16 dereferenceable(16) %2, i8 0, i64 16, i1 false)
  %.b = load i1, ptr @use_default_ctx, align 4
  br i1 %.b, label %3, label %5

3:                                                ; preds = %0
  %4 = call fastcc i32 @load_providers(ptr noundef %1, ptr noundef %2)
  %.not = icmp eq i32 %4, 0
  br i1 %.not, label %8, label %5

5:                                                ; preds = %3, %0
  %6 = tail call ptr @EVP_aes_128_cbc() #7
  %7 = tail call fastcc i32 @test_cipher(ptr noundef %6)
  br label %8

8:                                                ; preds = %5, %3
  %9 = phi i32 [ 0, %3 ], [ %7, %5 ]
  %.val = load ptr, ptr %1, align 8
  %.val1 = load ptr, ptr %2, align 16, !tbaa !13
  %10 = getelementptr inbounds nuw i8, ptr %2, i64 8
  %.val2 = load ptr, ptr %10, align 8
  %.not.i = icmp eq ptr %.val1, null
  br i1 %.not.i, label %13, label %11

11:                                               ; preds = %8
  %12 = tail call i32 @OSSL_PROVIDER_unload(ptr noundef nonnull %.val1) #7
  br label %13

13:                                               ; preds = %11, %8
  %.not11.i = icmp eq ptr %.val2, null
  br i1 %.not11.i, label %16, label %14

14:                                               ; preds = %13
  %15 = tail call i32 @OSSL_PROVIDER_unload(ptr noundef nonnull %.val2) #7
  br label %16

16:                                               ; preds = %14, %13
  %.not12.i = icmp eq ptr %.val, null
  br i1 %.not12.i, label %unload_providers.exit, label %17

17:                                               ; preds = %16
  tail call void @OPENSSL_thread_stop_ex(ptr noundef nonnull %.val) #7
  tail call void @OSSL_LIB_CTX_free(ptr noundef nonnull %.val) #7
  br label %unload_providers.exit

unload_providers.exit:                            ; preds = %16, %17
  call void @llvm.lifetime.end.p0(i64 16, ptr nonnull %2) #7
  call void @llvm.lifetime.end.p0(i64 8, ptr nonnull %1) #7
  ret i32 %9
}